(lp0
(lp1
F0.0
aF1.0
aF0.0
aF191.0
aa(lp2
F0.0
aF0.0
aF0.0
aF154.0
aa(lp3
F0.0
aF1.0
aF1.0
aF95.0
aa(lp4
F0.0
aF0.0
aF1.0
aF79.0
aa(lp5
F0.02857142857142857
aF1.0
aF0.0
aF529.0
aa(lp6
F0.02857142857142857
aF0.0
aF0.0
aF399.0
aa(lp7
F0.02857142857142857
aF1.0
aF1.0
aF479.0
aa(lp8
F0.02857142857142857
aF0.0
aF1.0
aF348.0
aa(lp9
F0.05714285714285714
aF1.0
aF0.0
aF46.0
aa(lp10
F0.05714285714285714
aF0.0
aF0.0
aF49.0
aa(lp11
F0.05714285714285714
aF1.0
aF1.0
aF14.0
aa(lp12
F0.05714285714285714
aF0.0
aF1.0
aF15.0
aa(lp13
F0.08571428571428572
aF1.0
aF0.0
aF1837.0
aa(lp14
F0.08571428571428572
aF0.0
aF0.0
aF634.0
aa(lp15
F0.08571428571428572
aF1.0
aF1.0
aF723.0
aa(lp16
F0.08571428571428572
aF0.0
aF1.0
aF326.0
aa(lp17
F0.11428571428571428
aF1.0
aF0.0
aF8256.0
aa(lp18
F0.11428571428571428
aF0.0
aF0.0
aF6602.0
aa(lp19
F0.11428571428571428
aF1.0
aF1.0
aF2570.0
aa(lp20
F0.11428571428571428
aF0.0
aF1.0
aF2152.0
aa(lp21
F0.14285714285714285
aF1.0
aF0.0
aF988.0
aa(lp22
F0.14285714285714285
aF0.0
aF0.0
aF693.0
aa(lp23
F0.14285714285714285
aF1.0
aF1.0
aF737.0
aa(lp24
F0.14285714285714285
aF0.0
aF1.0
aF513.0
aa(lp25
F0.17142857142857143
aF1.0
aF0.0
aF128.0
aa(lp26
F0.17142857142857143
aF0.0
aF0.0
aF14181.0
aa(lp27
F0.17142857142857143
aF1.0
aF1.0
aF29.0
aa(lp28
F0.17142857142857143
aF0.0
aF1.0
aF2837.0
aa(lp29
F0.2
aF0.0
aF0.0
aF1144.0
aa(lp30
F0.2
aF0.0
aF1.0
aF369.0
aa(lp31
F0.22857142857142856
aF1.0
aF0.0
aF732.0
aa(lp32
F0.22857142857142856
aF0.0
aF0.0
aF432.0
aa(lp33
F0.22857142857142856
aF1.0
aF1.0
aF210.0
aa(lp34
F0.22857142857142856
aF0.0
aF1.0
aF140.0
aa(lp35
F0.2571428571428571
aF1.0
aF0.0
aF193.0
aa(lp36
F0.2571428571428571
aF0.0
aF0.0
aF145.0
aa(lp37
F0.2571428571428571
aF1.0
aF1.0
aF138.0
aa(lp38
F0.2571428571428571
aF0.0
aF1.0
aF114.0
aa(lp39
F0.2857142857142857
aF1.0
aF0.0
aF5088.0
aa(lp40
F0.2857142857142857
aF0.0
aF0.0
aF4770.0
aa(lp41
F0.2857142857142857
aF1.0
aF1.0
aF1864.0
aa(lp42
F0.2857142857142857
aF0.0
aF1.0
aF1711.0
aa(lp43
F0.3142857142857143
aF1.0
aF0.0
aF2277.0
aa(lp44
F0.3142857142857143
aF0.0
aF0.0
aF842.0
aa(lp45
F0.3142857142857143
aF1.0
aF1.0
aF767.0
aa(lp46
F0.3142857142857143
aF0.0
aF1.0
aF252.0
aa(lp47
F0.34285714285714286
aF1.0
aF0.0
aF3027.0
aa(lp48
F0.34285714285714286
aF0.0
aF0.0
aF1104.0
aa(lp49
F0.34285714285714286
aF1.0
aF1.0
aF772.0
aa(lp50
F0.34285714285714286
aF0.0
aF1.0
aF258.0
aa(lp51
F0.37142857142857144
aF1.0
aF0.0
aF321.0
aa(lp52
F0.37142857142857144
aF0.0
aF0.0
aF260.0
aa(lp53
F0.37142857142857144
aF1.0
aF1.0
aF79.0
aa(lp54
F0.37142857142857144
aF0.0
aF1.0
aF52.0
aa(lp55
F0.4
aF1.0
aF0.0
aF1772.0
aa(lp56
F0.4
aF0.0
aF0.0
aF1002.0
aa(lp57
F0.4
aF1.0
aF1.0
aF574.0
aa(lp58
F0.4
aF0.0
aF1.0
aF354.0
aa(lp59
F0.42857142857142855
aF1.0
aF0.0
aF609.0
aa(lp60
F0.42857142857142855
aF0.0
aF0.0
aF84.0
aa(lp61
F0.42857142857142855
aF1.0
aF1.0
aF240.0
aa(lp62
F0.42857142857142855
aF0.0
aF1.0
aF38.0
aa(lp63
F0.45714285714285713
aF1.0
aF0.0
aF1022.0
aa(lp64
F0.45714285714285713
aF0.0
aF0.0
aF391.0
aa(lp65
F0.45714285714285713
aF1.0
aF1.0
aF892.0
aa(lp66
F0.45714285714285713
aF0.0
aF1.0
aF443.0
aa(lp67
F0.4857142857142857
aF1.0
aF0.0
aF6251.0
aa(lp68
F0.4857142857142857
aF0.0
aF0.0
aF4178.0
aa(lp69
F0.4857142857142857
aF1.0
aF1.0
aF4971.0
aa(lp70
F0.4857142857142857
aF0.0
aF1.0
aF3181.0
aa(lp71
F0.5142857142857142
aF1.0
aF0.0
aF6700.0
aa(lp72
F0.5142857142857142
aF0.0
aF0.0
aF4705.0
aa(lp73
F0.5142857142857142
aF1.0
aF1.0
aF984.0
aa(lp74
F0.5142857142857142
aF0.0
aF1.0
aF465.0
aa(lp75
F0.5428571428571428
aF1.0
aF0.0
aF565.0
aa(lp76
F0.5428571428571428
aF0.0
aF0.0
aF129.0
aa(lp77
F0.5428571428571428
aF1.0
aF1.0
aF517.0
aa(lp78
F0.5428571428571428
aF0.0
aF1.0
aF118.0
aa(lp79
F0.5714285714285714
aF1.0
aF0.0
aF855.0
aa(lp80
F0.5714285714285714
aF0.0
aF0.0
aF643.0
aa(lp81
F0.5714285714285714
aF1.0
aF1.0
aF472.0
aa(lp82
F0.5714285714285714
aF0.0
aF1.0
aF370.0
aa(lp83
F0.6
aF1.0
aF0.0
aF2545.0
aa(lp84
F0.6
aF0.0
aF0.0
aF1919.0
aa(lp85
F0.6
aF1.0
aF1.0
aF855.0
aa(lp86
F0.6
aF0.0
aF1.0
aF752.0
aa(lp87
F0.6285714285714286
aF1.0
aF1.0
aF319.0
aa(lp88
F0.6285714285714286
aF0.0
aF1.0
aF149.0
aa(lp89
F0.6285714285714286
aF0.0
aF1.0
aF474.0
aa(lp90
F0.6285714285714286
aF0.0
aF1.0
aF289.0
aa(lp91
F0.6857142857142857
aF1.0
aF0.0
aF1009.0
aa(lp92
F0.6857142857142857
aF0.0
aF0.0
aF417.0
aa(lp93
F0.6857142857142857
aF1.0
aF1.0
aF866.0
aa(lp94
F0.6857142857142857
aF0.0
aF1.0
aF371.0
aa(lp95
F0.7142857142857143
aF0.0
aF0.0
aF1303.0
aa(lp96
F0.7142857142857143
aF0.0
aF1.0
aF903.0
aa(lp97
F0.7428571428571429
aF1.0
aF0.0
aF1411.0
aa(lp98
F0.7428571428571429
aF0.0
aF0.0
aF1253.0
aa(lp99
F0.7428571428571429
aF1.0
aF1.0
aF1232.0
aa(lp100
F0.7428571428571429
aF0.0
aF1.0
aF1204.0
aa(lp101
F0.7714285714285715
aF1.0
aF0.0
aF21808.0
aa(lp102
F0.7714285714285715
aF1.0
aF1.0
aF3224.0
aa(lp103
F0.8
aF1.0
aF0.0
aF3167.0
aa(lp104
F0.8
aF0.0
aF0.0
aF1878.0
aa(lp105
F0.8
aF1.0
aF1.0
aF1088.0
aa(lp106
F0.8
aF0.0
aF1.0
aF767.0
aa(lp107
F0.8285714285714286
aF1.0
aF0.0
aF1314.0
aa(lp108
F0.8285714285714286
aF0.0
aF0.0
aF723.0
aa(lp109
F0.8285714285714286
aF1.0
aF1.0
aF892.0
aa(lp110
F0.8285714285714286
aF0.0
aF1.0
aF570.0
aa(lp111
F0.8571428571428571
aF1.0
aF0.0
aF744.0
aa(lp112
F0.8571428571428571
aF1.0
aF1.0
aF45.0
aa(lp113
F0.8857142857142857
aF1.0
aF0.0
aF529.0
aa(lp114
F0.8857142857142857
aF0.0
aF0.0
aF1556.0
aa(lp115
F0.8857142857142857
aF1.0
aF1.0
aF49.0
aa(lp116
F0.8857142857142857
aF0.0
aF1.0
aF80.0
aa(lp117
F0.9142857142857143
aF1.0
aF0.0
aF445.0
aa(lp118
F0.9142857142857143
aF0.0
aF0.0
aF221.0
aa(lp119
F0.9142857142857143
aF1.0
aF1.0
aF139.0
aa(lp120
F0.9142857142857143
aF0.0
aF1.0
aF64.0
aa(lp121
F0.9428571428571428
aF1.0
aF0.0
aF1652.0
aa(lp122
F0.9428571428571428
aF0.0
aF0.0
aF1541.0
aa(lp123
F0.9428571428571428
aF1.0
aF1.0
aF1308.0
aa(lp124
F0.9428571428571428
aF0.0
aF1.0
aF1209.0
aa(lp125
F0.9714285714285714
aF0.0
aF0.0
aF2255.0
aa(lp126
F0.9714285714285714
aF0.0
aF1.0
aF367.0
aa.