(lp0
(lp1
F0.0
aF1.0
aF0.0
aF0.8534031413612565
aF0.93717277486911
aF0.93717277486911
aF0.8900523560209425
aF1.0
aa(lp2
F0.0
aF0.0
aF0.0
aF0.8896103896103896
aF0.8896103896103896
aF0.8116883116883117
aF0.9155844155844156
aF0.8376623376623377
aa(lp3
F0.0
aF1.0
aF1.0
aF0.5368421052631579
aF0.5052631578947369
aF0.631578947368421
aF0.4421052631578947
aF0.6631578947368421
aa(lp4
F0.0
aF0.0
aF1.0
aF0.4810126582278481
aF0.5569620253164557
aF0.46835443037974683
aF0.3924050632911392
aF0.4177215189873418
aa(lp5
F0.02857142857142857
aF1.0
aF0.0
aF0.8676748582230623
aF0.9621928166351607
aF0.9130434782608695
aF1.0
aF0.9017013232514177
aa(lp6
F0.02857142857142857
aF0.0
aF0.0
aF0.9273182957393483
aF0.8822055137844611
aF0.9924812030075187
aF0.9724310776942355
aF1.0
aa(lp7
F0.02857142857142857
aF1.0
aF1.0
aF0.8350730688935282
aF0.9248434237995825
aF0.9039665970772442
aF1.0
aF0.9478079331941545
aa(lp8
F0.02857142857142857
aF0.0
aF1.0
aF0.9310344827586207
aF0.7959770114942529
aF0.8850574712643678
aF0.9137931034482759
aF1.0
aa(lp9
F0.05714285714285714
aF1.0
aF0.0
aF0.8043478260869565
aF0.8695652173913043
aF0.8260869565217391
aF0.8695652173913043
aF0.7391304347826086
aa(lp10
F0.05714285714285714
aF0.0
aF0.0
aF0.8571428571428571
aF0.7959183673469388
aF0.8571428571428571
aF0.8775510204081632
aF0.8775510204081632
aa(lp11
F0.05714285714285714
aF1.0
aF1.0
aF0.7857142857142857
aF0.7142857142857143
aF0.5714285714285714
aF0.5
aF0.9285714285714286
aa(lp12
F0.05714285714285714
aF0.0
aF1.0
aF0.5333333333333333
aF0.5333333333333333
aF0.6666666666666666
aF0.6
aF0.5333333333333333
aa(lp13
F0.08571428571428572
aF1.0
aF0.0
aF0.9221556886227545
aF0.8878606423516603
aF0.9390310288513881
aF0.9401197604790419
aF1.0
aa(lp14
F0.08571428571428572
aF0.0
aF0.0
aF0.9227129337539433
aF0.886435331230284
aF0.8943217665615142
aF0.973186119873817
aF0.9842271293375394
aa(lp15
F0.08571428571428572
aF1.0
aF1.0
aF0.8561549100968188
aF0.8824343015214384
aF0.9142461964038727
aF0.9806362378976486
aF1.0
aa(lp16
F0.08571428571428572
aF0.0
aF1.0
aF0.8619631901840491
aF0.9478527607361963
aF0.8588957055214724
aF1.0
aF0.8895705521472392
aa(lp17
F0.11428571428571428
aF1.0
aF0.0
aF0.904312015503876
aF0.9496124031007752
aF0.953609496124031
aF0.9503391472868217
aF1.0
aa(lp18
F0.11428571428571428
aF0.0
aF0.0
aF0.9407755225689185
aF0.9818236897909725
aF0.9721296576794911
aF0.9642532565889125
aF1.0
aa(lp19
F0.11428571428571428
aF1.0
aF1.0
aF0.8280155642023346
aF0.8723735408560311
aF0.8365758754863813
aF0.8735408560311284
aF0.8556420233463035
aa(lp20
F0.11428571428571428
aF0.0
aF1.0
aF0.7829925650557621
aF0.8722118959107806
aF0.8508364312267658
aF0.8285315985130112
aF0.8220260223048327
aa(lp21
F0.14285714285714285
aF1.0
aF0.0
aF0.805668016194332
aF0.9119433198380567
aF0.8977732793522267
aF0.9504048582995951
aF1.0
aa(lp22
F0.14285714285714285
aF0.0
aF0.0
aF0.8658008658008658
aF0.8383838383838383
aF0.9321789321789322
aF0.9567099567099567
aF1.0
aa(lp23
F0.14285714285714285
aF1.0
aF1.0
aF0.8439620081411127
aF0.9308005427408412
aF0.9511533242876526
aF0.937584803256445
aF1.0
aa(lp24
F0.14285714285714285
aF0.0
aF1.0
aF0.8499025341130604
aF0.9122807017543859
aF0.9200779727095516
aF0.9298245614035088
aF1.0
aa(lp25
F0.17142857142857143
aF1.0
aF0.0
aF0.78125
aF0.8046875
aF0.890625
aF0.875
aF1.0
aa(lp26
F0.17142857142857143
aF0.0
aF0.0
aF0.8942951836964953
aF0.8908398561455468
aF0.9587476200550031
aF0.968902052041464
aF1.0
aa(lp27
F0.17142857142857143
aF1.0
aF1.0
aF0.896551724137931
aF0.8620689655172413
aF0.4827586206896552
aF1.0
aF0.7931034482758621
aa(lp28
F0.17142857142857143
aF0.0
aF1.0
aF0.924920690870638
aF0.9594642227705322
aF0.9679238632358125
aF0.9816707789918928
aF1.0
aa(lp29
F0.2
aF0.0
aF0.0
aF0.6302447552447552
aF0.6538461538461539
aF0.6791958041958042
aF0.659965034965035
aF0.715034965034965
aa(lp30
F0.2
aF0.0
aF1.0
aF0.6178861788617886
aF0.5447154471544715
aF0.6422764227642277
aF0.6531165311653117
aF0.6205962059620597
aa(lp31
F0.22857142857142856
aF1.0
aF0.0
aF0.9166666666666666
aF0.9084699453551912
aF0.9480874316939891
aF0.8469945355191257
aF0.9043715846994536
aa(lp32
F0.22857142857142856
aF0.0
aF0.0
aF0.9814814814814815
aF0.9097222222222222
aF0.9560185185185185
aF0.9328703703703703
aF1.0
aa(lp33
F0.22857142857142856
aF1.0
aF1.0
aF0.8761904761904762
aF0.919047619047619
aF0.919047619047619
aF0.9809523809523809
aF1.0
aa(lp34
F0.22857142857142856
aF0.0
aF1.0
aF0.8571428571428571
aF0.8928571428571429
aF0.7142857142857143
aF0.85
aF1.0
aa(lp35
F0.2571428571428571
aF1.0
aF0.0
aF0.7150259067357513
aF0.8704663212435233
aF0.8341968911917098
aF0.8134715025906736
aF1.0
aa(lp36
F0.2571428571428571
aF0.0
aF0.0
aF0.8137931034482758
aF0.6758620689655173
aF0.8413793103448276
aF0.8620689655172413
aF0.9448275862068966
aa(lp37
F0.2571428571428571
aF1.0
aF1.0
aF0.5507246376811594
aF0.41304347826086957
aF0.4420289855072464
aF0.41304347826086957
aF0.37681159420289856
aa(lp38
F0.2571428571428571
aF0.0
aF1.0
aF0.3508771929824561
aF0.32456140350877194
aF0.35964912280701755
aF0.40350877192982454
aF0.34210526315789475
aa(lp39
F0.2857142857142857
aF1.0
aF0.0
aF0.9025157232704403
aF0.9335691823899371
aF0.9614779874213837
aF0.9579402515723271
aF1.0
aa(lp40
F0.2857142857142857
aF0.0
aF0.0
aF0.919077568134172
aF0.9651991614255765
aF0.9675052410901468
aF0.9628930817610063
aF1.0
aa(lp41
F0.2857142857142857
aF1.0
aF1.0
aF0.6904506437768241
aF0.7076180257510729
aF0.6673819742489271
aF0.651824034334764
aF0.596030042918455
aa(lp42
F0.2857142857142857
aF0.0
aF1.0
aF0.6662770309760374
aF0.7387492694330801
aF0.6966686148451198
aF0.6551724137931034
aF0.5856224430157803
aa(lp43
F0.3142857142857143
aF1.0
aF0.0
aF0.9148001756697409
aF0.927536231884058
aF0.924901185770751
aF0.9846288976723759
aF1.0
aa(lp44
F0.3142857142857143
aF0.0
aF0.0
aF0.8420427553444181
aF0.9002375296912114
aF0.9287410926365796
aF0.9204275534441805
aF1.0
aa(lp45
F0.3142857142857143
aF1.0
aF1.0
aF0.8435462842242504
aF0.8709256844850065
aF0.9022164276401564
aF0.9582790091264668
aF1.0
aa(lp46
F0.3142857142857143
aF0.0
aF1.0
aF0.7182539682539683
aF0.9404761904761905
aF0.9682539682539683
aF0.9722222222222222
aF0.996031746031746
aa(lp47
F0.34285714285714286
aF1.0
aF0.0
aF0.9084902543772713
aF0.916418896597291
aF0.8949454905847374
aF0.9547406673273868
aF1.0
aa(lp48
F0.34285714285714286
aF0.0
aF0.0
aF0.8541666666666666
aF0.9085144927536232
aF0.9375
aF0.917572463768116
aF1.0
aa(lp49
F0.34285714285714286
aF1.0
aF1.0
aF0.8471502590673575
aF0.8795336787564767
aF0.9093264248704663
aF0.9598445595854922
aF1.0
aa(lp50
F0.34285714285714286
aF0.0
aF1.0
aF0.7131782945736435
aF0.9302325581395349
aF0.9496124031007752
aF0.9651162790697675
aF1.0
aa(lp51
F0.37142857142857144
aF1.0
aF0.0
aF0.8535825545171339
aF0.897196261682243
aF0.9314641744548287
aF0.9096573208722741
aF1.0
aa(lp52
F0.37142857142857144
aF0.0
aF0.0
aF0.9
aF0.9538461538461539
aF0.8346153846153846
aF1.0
aF0.95
aa(lp53
F0.37142857142857144
aF1.0
aF1.0
aF0.3924050632911392
aF0.5949367088607594
aF0.34177215189873417
aF0.3924050632911392
aF0.5443037974683544
aa(lp54
F0.37142857142857144
aF0.0
aF1.0
aF0.40384615384615385
aF0.46153846153846156
aF0.5961538461538461
aF0.5576923076923077
aF0.7884615384615384
aa(lp55
F0.4
aF1.0
aF0.0
aF0.9311512415349887
aF0.9830699774266366
aF0.9571106094808126
aF1.0
aF0.9644469525959368
aa(lp56
F0.4
aF0.0
aF0.0
aF0.9051896207584831
aF0.8782435129740519
aF0.9181636726546906
aF0.9880239520958084
aF1.0
aa(lp57
F0.4
aF1.0
aF1.0
aF0.9250871080139372
aF0.980836236933798
aF0.9024390243902439
aF1.0
aF0.9895470383275261
aa(lp58
F0.4
aF0.0
aF1.0
aF0.9265536723163842
aF0.9096045197740112
aF0.8813559322033898
aF0.9774011299435028
aF0.9943502824858758
aa(lp59
F0.42857142857142855
aF1.0
aF0.0
aF0.9326765188834154
aF0.8604269293924466
aF0.8292282430213465
aF0.8702791461412152
aF0.8899835796387521
aa(lp60
F0.42857142857142855
aF0.0
aF0.0
aF0.6428571428571429
aF0.6904761904761905
aF0.9523809523809523
aF0.75
aF1.0
aa(lp61
F0.42857142857142855
aF1.0
aF1.0
aF0.7708333333333334
aF0.8166666666666667
aF0.8166666666666667
aF0.8
aF0.9125
aa(lp62
F0.42857142857142855
aF0.0
aF1.0
aF0.47368421052631576
aF0.631578947368421
aF0.868421052631579
aF0.5789473684210527
aF0.9210526315789473
aa(lp63
F0.45714285714285713
aF1.0
aF0.0
aF0.8454011741682974
aF0.8434442270058709
aF0.9706457925636007
aF0.9794520547945206
aF1.0
aa(lp64
F0.45714285714285713
aF0.0
aF0.0
aF0.8772378516624041
aF0.8772378516624041
aF0.9386189258312021
aF1.0
aF0.9718670076726342
aa(lp65
F0.45714285714285713
aF1.0
aF1.0
aF0.7993273542600897
aF0.8329596412556054
aF0.8811659192825112
aF1.0
aF1.0
aa(lp66
F0.45714285714285713
aF0.0
aF1.0
aF0.7878103837471784
aF0.90744920993228
aF0.9232505643340858
aF1.0
aF0.9909706546275395
aa(lp67
F0.4857142857142857
aF1.0
aF0.0
aF0.9788833786594145
aF0.9691249400095985
aF0.975363941769317
aF0.9697648376259799
aF1.0
aa(lp68
F0.4857142857142857
aF0.0
aF0.0
aF0.8671613212063188
aF0.9157491622786021
aF0.9583532790809
aF1.0
aF0.9679272379128769
aa(lp69
F0.4857142857142857
aF1.0
aF1.0
aF0.9426674713337356
aF0.9668074834037417
aF1.0
aF0.9565479782739892
aF0.9869241601287467
aa(lp70
F0.4857142857142857
aF0.0
aF1.0
aF0.8566488525620874
aF0.9236089280100598
aF0.9078906004401132
aF0.9534737503929582
aF1.0
aa(lp71
F0.5142857142857142
aF1.0
aF0.0
aF0.906865671641791
aF0.8962686567164179
aF0.9682089552238806
aF0.9805970149253731
aF1.0
aa(lp72
F0.5142857142857142
aF0.0
aF0.0
aF0.9147715196599362
aF0.9319872476089267
aF0.973645058448459
aF0.9972369819341127
aF1.0
aa(lp73
F0.5142857142857142
aF1.0
aF1.0
aF0.8079268292682927
aF0.9044715447154471
aF0.9573170731707317
aF0.9623983739837398
aF1.0
aa(lp74
F0.5142857142857142
aF0.0
aF1.0
aF0.978494623655914
aF0.9139784946236559
aF0.978494623655914
aF1.0
aF0.9634408602150538
aa(lp75
F0.5428571428571428
aF1.0
aF0.0
aF0.8601769911504424
aF1.0
aF0.9699115044247788
aF0.95929203539823
aF0.95929203539823
aa(lp76
F0.5428571428571428
aF0.0
aF0.0
aF0.7984496124031008
aF0.8449612403100775
aF0.8992248062015504
aF1.0
aF0.9612403100775194
aa(lp77
F0.5428571428571428
aF1.0
aF1.0
aF0.7504835589941973
aF0.9593810444874274
aF0.9226305609284333
aF0.9168278529980658
aF1.0
aa(lp78
F0.5428571428571428
aF0.0
aF1.0
aF0.7457627118644068
aF0.788135593220339
aF1.0
aF0.9322033898305084
aF0.9915254237288136
aa(lp79
F0.5714285714285714
aF1.0
aF0.0
aF0.8456140350877193
aF0.8771929824561403
aF0.927485380116959
aF1.0
aF0.9660818713450292
aa(lp80
F0.5714285714285714
aF0.0
aF0.0
aF0.8662519440124417
aF0.864696734059098
aF0.8631415241057543
aF1.0
aF0.995334370139969
aa(lp81
F0.5714285714285714
aF1.0
aF1.0
aF0.8432203389830508
aF0.8241525423728814
aF0.9957627118644068
aF0.923728813559322
aF1.0
aa(lp82
F0.5714285714285714
aF0.0
aF1.0
aF0.8864864864864865
aF0.9081081081081082
aF1.0
aF0.8675675675675676
aF0.9648648648648649
aa(lp83
F0.6
aF1.0
aF0.0
aF0.8777996070726916
aF0.8738703339882122
aF0.9147347740667976
aF0.9611001964636542
aF1.0
aa(lp84
F0.6
aF0.0
aF0.0
aF0.9093277748827514
aF0.9697759249609171
aF0.9666492965085982
aF1.0
aF1.0
aa(lp85
F0.6
aF1.0
aF1.0
aF0.9099415204678363
aF0.8783625730994152
aF0.9192982456140351
aF0.8502923976608188
aF0.9157894736842105
aa(lp86
F0.6
aF0.0
aF1.0
aF0.863031914893617
aF0.8085106382978723
aF0.8231382978723404
aF0.8204787234042553
aF0.7486702127659575
aa(lp87
F0.6285714285714286
aF1.0
aF1.0
aF0.8557993730407524
aF0.9905956112852664
aF0.8213166144200627
aF1.0
aF0.9435736677115988
aa(lp88
F0.6285714285714286
aF0.0
aF1.0
aF0.9194630872483222
aF0.9664429530201343
aF0.9463087248322147
aF1.0
aF0.959731543624161
aa(lp89
F0.6571428571428571
aF1.0
aF0.0
aF0.8544303797468354
aF0.9535864978902954
aF0.8649789029535865
aF0.9936708860759493
aF1.0
aa(lp90
F0.6571428571428571
aF0.0
aF0.0
aF0.9307958477508651
aF0.9757785467128027
aF0.9134948096885813
aF0.9757785467128027
aF1.0
aa(lp91
F0.6857142857142857
aF1.0
aF0.0
aF0.8562933597621407
aF0.8642220019821606
aF0.9157581764122894
aF0.8939544103072349
aF1.0
aa(lp92
F0.6857142857142857
aF0.0
aF0.0
aF0.8752997601918465
aF0.9688249400479616
aF0.9064748201438849
aF0.9112709832134293
aF1.0
aa(lp93
F0.6857142857142857
aF1.0
aF1.0
aF0.9330254041570438
aF0.9157043879907621
aF0.9745958429561201
aF0.9503464203233256
aF1.0
aa(lp94
F0.6857142857142857
aF0.0
aF1.0
aF0.9380053908355795
aF0.8733153638814016
aF0.9757412398921833
aF0.9514824797843666
aF0.8921832884097035
aa(lp95
F0.7142857142857143
aF0.0
aF0.0
aF0.9792785878741366
aF0.9938603223330775
aF0.9961627014581734
aF0.9869531849577897
aF1.0
aa(lp96
F0.7142857142857143
aF0.0
aF1.0
aF0.8981173864894795
aF0.9413067552602437
aF0.9878183831672204
aF0.9501661129568106
aF1.0
aa(lp97
F0.7428571428571429
aF1.0
aF0.0
aF0.856839121190645
aF0.9865343727852587
aF0.9170800850460666
aF0.9397590361445783
aF1.0
aa(lp98
F0.7428571428571429
aF0.0
aF0.0
aF0.8922585794094174
aF0.9696727853152434
aF0.9273743016759777
aF0.9888268156424581
aF1.0
aa(lp99
F0.7428571428571429
aF1.0
aF1.0
aF0.864448051948052
aF1.0
aF0.9626623376623377
aF0.9318181818181818
aF0.9943181818181818
aa(lp100
F0.7428571428571429
aF0.0
aF1.0
aF0.8521594684385382
aF0.8588039867109635
aF0.8920265780730897
aF0.8961794019933554
aF1.0
aa(lp101
F0.7714285714285715
aF1.0
aF0.0
aF0.8127751283932502
aF0.8984317681584739
aF0.9580887747615554
aF1.0
aF0.9087949376375642
aa(lp102
F0.7714285714285715
aF1.0
aF1.0
aF0.9215260545905707
aF0.9267990074441688
aF0.918424317617866
aF0.9727047146401985
aF1.0
aa(lp103
F0.8
aF1.0
aF0.0
aF0.9074834227976003
aF0.9756867698137038
aF0.9412693400694664
aF0.9384275339437954
aF1.0
aa(lp104
F0.8
aF0.0
aF0.0
aF0.9728434504792333
aF1.0
aF0.9600638977635783
aF0.9435569755058573
aF0.9749733759318424
aa(lp105
F0.8
aF1.0
aF1.0
aF0.7729779411764706
aF0.8483455882352942
aF0.8327205882352942
aF0.9466911764705882
aF1.0
aa(lp106
F0.8
aF0.0
aF1.0
aF0.7105606258148631
aF0.7992177314211213
aF0.833116036505867
aF0.863102998696219
aF1.0
aa(lp107
F0.8285714285714286
aF1.0
aF0.0
aF0.969558599695586
aF0.928462709284627
aF0.9931506849315068
aF0.9802130898021308
aF1.0
aa(lp108
F0.8285714285714286
aF0.0
aF0.0
aF0.921161825726141
aF0.9488243430152143
aF0.9875518672199171
aF0.9142461964038727
aF0.9488243430152143
aa(lp109
F0.8285714285714286
aF1.0
aF1.0
aF0.7623318385650224
aF0.8015695067264574
aF0.7892376681614349
aF0.7589686098654709
aF0.8139013452914798
aa(lp110
F0.8285714285714286
aF0.0
aF1.0
aF0.7894736842105263
aF0.7649122807017544
aF0.7298245614035088
aF0.7526315789473684
aF0.6526315789473685
aa(lp111
F0.8571428571428571
aF1.0
aF0.0
aF0.8454301075268817
aF0.9435483870967742
aF0.9395161290322581
aF1.0
aF0.9489247311827957
aa(lp112
F0.8571428571428571
aF1.0
aF1.0
aF0.4666666666666667
aF0.5777777777777777
aF0.2222222222222222
aF0.4444444444444444
aF0.4888888888888889
aa(lp113
F0.8857142857142857
aF1.0
aF0.0
aF0.7372400756143668
aF0.8638941398865785
aF0.9867674858223062
aF1.0
aF0.9867674858223062
aa(lp114
F0.8857142857142857
aF0.0
aF0.0
aF0.8187660668380463
aF0.859254498714653
aF0.9479434447300771
aF0.9820051413881749
aF1.0
aa(lp115
F0.8857142857142857
aF1.0
aF1.0
aF0.9795918367346939
aF0.8163265306122449
aF0.9183673469387755
aF1.0
aF0.8367346938775511
aa(lp116
F0.8857142857142857
aF0.0
aF1.0
aF0.825
aF0.75
aF0.7875
aF1.0
aF0.9375
aa(lp117
F0.9142857142857143
aF1.0
aF0.0
aF0.8202247191011236
aF0.8966292134831461
aF0.9325842696629213
aF0.9213483146067416
aF1.0
aa(lp118
F0.9142857142857143
aF0.0
aF0.0
aF0.7149321266968326
aF0.8959276018099548
aF0.7918552036199095
aF0.9366515837104072
aF1.0
aa(lp119
F0.9142857142857143
aF1.0
aF1.0
aF0.7266187050359713
aF0.9424460431654677
aF0.8776978417266187
aF0.8705035971223022
aF1.0
aa(lp120
F0.9142857142857143
aF0.0
aF1.0
aF0.765625
aF0.8125
aF0.9375
aF0.953125
aF0.921875
aa(lp121
F0.9428571428571428
aF1.0
aF0.0
aF0.8601694915254238
aF0.862590799031477
aF0.8383777239709443
aF0.8389830508474576
aF0.9358353510895884
aa(lp122
F0.9428571428571428
aF0.0
aF0.0
aF0.881245944192083
aF0.872160934458144
aF0.8208955223880597
aF0.8500973393900065
aF0.8617780661907852
aa(lp123
F0.9428571428571428
aF1.0
aF1.0
aF0.9977064220183486
aF0.9288990825688074
aF0.9258409785932722
aF0.9388379204892966
aF0.8868501529051988
aa(lp124
F0.9428571428571428
aF0.0
aF1.0
aF0.9966914805624483
aF0.902398676592225
aF0.9412737799834574
aF0.9057071960297767
aF0.91232423490488
aa(lp125
F0.9714285714285714
aF0.0
aF0.0
aF0.8301552106430156
aF0.8660753880266076
aF0.8957871396895787
aF0.9569844789356985
aF1.0
aa(lp126
F0.9714285714285714
aF0.0
aF1.0
aF0.9564032697547684
aF0.9318801089918256
aF0.9536784741144414
aF0.9591280653950953
aF1.0
aa.